target datalayout = "e-m:e-p270:32:32-p271:32:32-p272:64:64-i64:64-i128:128-f80:128-n8:16:32:64-S128"
target triple = "x86_64-pc-linux-gnu"

%struct.Rtm_Man_t_ = type { ptr, ptr, ptr, ptr, ptr, i32, i32 }
%struct.Vec_Ptr_t_ = type { i32, i32, ptr }

; Function Attrs: inlinehint nounwind uwtable
define internal void @Vec_PtrFree(ptr noundef %0) #5 {
  %2 = alloca ptr, align 8
  store ptr %0, ptr %2, align 8, !tbaa !22
  %3 = load ptr, ptr %2, align 8, !tbaa !22
  %4 = getelementptr inbounds nuw %struct.Vec_Ptr_t_, ptr %3, i32 0, i32 2
  %5 = load ptr, ptr %4, align 8, !tbaa !26
  %6 = icmp ne ptr %5, null
  br i1 %6, label %7, label %13

7:                                                ; preds = %1
  %8 = load ptr, ptr %2, align 8, !tbaa !22
  %9 = getelementptr inbounds nuw %struct.Vec_Ptr_t_, ptr %8, i32 0, i32 2
  %10 = load ptr, ptr %9, align 8, !tbaa !26
  call void @free(ptr noundef %10) #11
  %11 = load ptr, ptr %2, align 8, !tbaa !22
  %12 = getelementptr inbounds nuw %struct.Vec_Ptr_t_, ptr %11, i32 0, i32 2
  store ptr null, ptr %12, align 8, !tbaa !26
  br label %14

13:                                               ; preds = %1
  br label %14

14:                                               ; preds = %13, %7
  %15 = load ptr, ptr %2, align 8, !tbaa !22
  %16 = icmp ne ptr %15, null
  br i1 %16, label %17, label %19

17:                                               ; preds = %14
  %18 = load ptr, ptr %2, align 8, !tbaa !22
  call void @free(ptr noundef %18) #11
  store ptr null, ptr %2, align 8, !tbaa !22
  br label %20

19:                                               ; preds = %14
  br label %20

20:                                               ; preds = %19, %17
  ret void
}

; Function Attrs: nounwind uwtable
define void @Rtm_ManFree(ptr noundef %0) #0 {
  %2 = alloca ptr, align 8
  store ptr %0, ptr %2, align 8, !tbaa !3
  %3 = load ptr, ptr %2, align 8, !tbaa !3
  %4 = getelementptr inbounds nuw %struct.Rtm_Man_t_, ptr %3, i32 0, i32 0
  %5 = load ptr, ptr %4, align 8, !tbaa !12
  call void @Vec_PtrFree(ptr noundef %5)
  %6 = load ptr, ptr %2, align 8, !tbaa !3
  %7 = getelementptr inbounds nuw %struct.Rtm_Man_t_, ptr %6, i32 0, i32 1
  %8 = load ptr, ptr %7, align 8, !tbaa !18
  call void @Vec_PtrFree(ptr noundef %8)
  %9 = load ptr, ptr %2, align 8, !tbaa !3
  %10 = getelementptr inbounds nuw %struct.Rtm_Man_t_, ptr %9, i32 0, i32 2
  %11 = load ptr, ptr %10, align 8, !tbaa !19
  call void @Vec_PtrFree(ptr noundef %11)
  %12 = load ptr, ptr %2, align 8, !tbaa !3
  %13 = getelementptr inbounds nuw %struct.Rtm_Man_t_, ptr %12, i32 0, i32 3
  %14 = load ptr, ptr %13, align 8, !tbaa !20
  call void @Aig_MmFlexStop(ptr noundef %14, i32 noundef 0)
  %15 = load ptr, ptr %2, align 8, !tbaa !3
  %16 = getelementptr inbounds nuw %struct.Rtm_Man_t_, ptr %15, i32 0, i32 4
  %17 = load ptr, ptr %16, align 8, !tbaa !39
  %18 = icmp ne ptr %17, null
  br i1 %18, label %19, label %25

19:                                               ; preds = %1
  %20 = load ptr, ptr %2, align 8, !tbaa !3
  %21 = getelementptr inbounds nuw %struct.Rtm_Man_t_, ptr %20, i32 0, i32 4
  %22 = load ptr, ptr %21, align 8, !tbaa !39
  call void @free(ptr noundef %22) #11
  %23 = load ptr, ptr %2, align 8, !tbaa !3
  %24 = getelementptr inbounds nuw %struct.Rtm_Man_t_, ptr %23, i32 0, i32 4
  store ptr null, ptr %24, align 8, !tbaa !39
  br label %26

25:                                               ; preds = %1
  br label %26

26:                                               ; preds = %25, %19
  %27 = load ptr, ptr %2, align 8, !tbaa !3
  %28 = icmp ne ptr %27, null
  br i1 %28, label %29, label %31

29:                                               ; preds = %26
  %30 = load ptr, ptr %2, align 8, !tbaa !3
  call void @free(ptr noundef %30) #11
  store ptr null, ptr %2, align 8, !tbaa !3
  br label %32

31:                                               ; preds = %26
  br label %32

32:                                               ; preds = %31, %29
  ret void
}