; Function Attrs: nounwind uwtable
define void @Rtm_ManFree(ptr noundef captures(none) %0) local_unnamed_addr #2 {
  %2 = load ptr, ptr %0, align 8, !tbaa !26
  %3 = getelementptr inbounds nuw i8, ptr %2, i64 8
  %4 = load ptr, ptr %3, align 8, !tbaa !25
  %.not.i = icmp eq ptr %4, null
  br i1 %.not.i, label %Vec_PtrFree.exit, label %5

5:                                                ; preds = %1
  tail call void @free(ptr noundef nonnull %4) #23
  br label %Vec_PtrFree.exit

Vec_PtrFree.exit:                                 ; preds = %1, %5
  tail call void @free(ptr noundef nonnull %2) #23
  %6 = getelementptr inbounds nuw i8, ptr %0, i64 8
  %7 = load ptr, ptr %6, align 8, !tbaa !30
  %8 = getelementptr inbounds nuw i8, ptr %7, i64 8
  %9 = load ptr, ptr %8, align 8, !tbaa !25
  %.not.i9 = icmp eq ptr %9, null
  br i1 %.not.i9, label %Vec_PtrFree.exit10, label %10

10:                                               ; preds = %Vec_PtrFree.exit
  tail call void @free(ptr noundef nonnull %9) #23
  br label %Vec_PtrFree.exit10

Vec_PtrFree.exit10:                               ; preds = %Vec_PtrFree.exit, %10
  tail call void @free(ptr noundef nonnull %7) #23
  %11 = getelementptr inbounds nuw i8, ptr %0, i64 16
  %12 = load ptr, ptr %11, align 8, !tbaa !31
  %13 = getelementptr inbounds nuw i8, ptr %12, i64 8
  %14 = load ptr, ptr %13, align 8, !tbaa !25
  %.not.i11 = icmp eq ptr %14, null
  br i1 %.not.i11, label %Vec_PtrFree.exit12, label %15

15:                                               ; preds = %Vec_PtrFree.exit10
  tail call void @free(ptr noundef nonnull %14) #23
  br label %Vec_PtrFree.exit12

Vec_PtrFree.exit12:                               ; preds = %Vec_PtrFree.exit10, %15
  tail call void @free(ptr noundef nonnull %12) #23
  %16 = getelementptr inbounds nuw i8, ptr %0, i64 24
  %17 = load ptr, ptr %16, align 8, !tbaa !32
  tail call void @Aig_MmFlexStop(ptr noundef %17, i32 noundef 0) #23
  %18 = getelementptr inbounds nuw i8, ptr %0, i64 32
  %19 = load ptr, ptr %18, align 8, !tbaa !33
  %.not = icmp eq ptr %19, null
  br i1 %.not, label %21, label %20

20:                                               ; preds = %Vec_PtrFree.exit12
  tail call void @free(ptr noundef nonnull %19) #23
  br label %21

21:                                               ; preds = %20, %Vec_PtrFree.exit12
  tail call void @free(ptr noundef nonnull %0) #23
  ret void
}